target datalayout = "e-m:e-p270:32:32-p271:32:32-p272:64:64-i64:64-i128:128-f80:128-n8:16:32:64-S128"
target triple = "x86_64-pc-linux-gnu"

%struct._packet_info = type { ptr, ptr, i32, i32, %struct.nstime_t, %struct.nstime_t, %struct.nstime_t, i8, ptr, ptr, ptr, ptr, %struct._address, %struct._address, %struct._address, %struct._address, %struct._address, %struct._address, i32, ptr, i8, [3 x i8], %struct.anon, i32, i32, i32, i32, ptr, i8, ptr, ptr, i16, i16, i32, i32, i16, i32, i32, ptr, ptr, ptr, i8, i8, i16, i16, i16, i32, i16, i16, ptr, ptr, ptr, ptr, ptr, i32, i32 }
%struct.nstime_t = type { i64, i32 }
%struct._address = type { i32, i32, ptr, ptr }
%struct.anon = type { i8, [3 x i8] }
%struct._proto_node = type { ptr, ptr, ptr, ptr, ptr, ptr, ptr }
%struct.field_info = type { ptr, i32, i32, i32, i32, i32, i32, ptr, ptr, ptr, i32, i32 }

@hf_juniper_payload_type = internal global i32 0, align 4
@hf_juniper_unknown_data = internal global i32 0, align 4
@ett_juniper = internal global i32 0, align 4
@payload_table = internal global ptr null, align 8
@.str.229 = private unnamed_addr constant [14 x i8] c"Juniper PPPoE\00", align 1
@.str.230 = private unnamed_addr constant [18 x i8] c"Juniper PPPoE PIC\00", align 1

; Function Attrs: inlinehint nounwind null_pointer_is_valid sspstrong uwtable
define internal void @proto_item_set_generated(ptr noundef %0) #4 {
  %2 = alloca ptr, align 8
  store ptr %0, ptr %2, align 8
  %3 = load ptr, ptr %2, align 8
  %4 = icmp ne ptr %3, null
  br i1 %4, label %5, label %24

5:                                                ; preds = %1
  br label %6

6:                                                ; preds = %5
  %7 = load ptr, ptr %2, align 8
  %8 = getelementptr inbounds nuw %struct._proto_node, ptr %7, i32 0, i32 5
  %9 = load ptr, ptr %8, align 8
  %10 = icmp ne ptr %9, null
  br i1 %10, label %11, label %22

11:                                               ; preds = %6
  %12 = load ptr, ptr %2, align 8
  %13 = getelementptr inbounds nuw %struct._proto_node, ptr %12, i32 0, i32 5
  %14 = load ptr, ptr %13, align 8
  %15 = getelementptr inbounds nuw %struct.field_info, ptr %14, i32 0, i32 6
  %16 = load i32, ptr %15, align 4
  %17 = or i32 %16, 2
  %18 = load ptr, ptr %2, align 8
  %19 = getelementptr inbounds nuw %struct._proto_node, ptr %18, i32 0, i32 5
  %20 = load ptr, ptr %19, align 8
  %21 = getelementptr inbounds nuw %struct.field_info, ptr %20, i32 0, i32 6
  store i32 %17, ptr %21, align 4
  br label %22

22:                                               ; preds = %11, %6
  br label %23

23:                                               ; preds = %22
  br label %24

24:                                               ; preds = %23, %1
  ret void
}

; Function Attrs: null_pointer_is_valid sspstrong uwtable
define internal i32 @dissect_juniper_payload_proto(ptr noundef %0, ptr noundef %1, ptr noundef %2, ptr noundef %3, i32 noundef %4, i32 noundef %5) #0 {
  %7 = alloca ptr, align 8
  %8 = alloca ptr, align 8
  %9 = alloca ptr, align 8
  %10 = alloca ptr, align 8
  %11 = alloca i32, align 4
  %12 = alloca i32, align 4
  %13 = alloca ptr, align 8
  %14 = alloca ptr, align 8
  store ptr %0, ptr %7, align 8
  store ptr %1, ptr %8, align 8
  store ptr %2, ptr %9, align 8
  store ptr %3, ptr %10, align 8
  store i32 %4, ptr %11, align 4
  store i32 %5, ptr %12, align 4
  call void @llvm.lifetime.start.p0(i64 8, ptr %13) #5
  call void @llvm.lifetime.start.p0(i64 8, ptr %14) #5
  %15 = load ptr, ptr %10, align 8
  %16 = load i32, ptr @hf_juniper_payload_type, align 4
  %17 = load ptr, ptr %7, align 8
  %18 = load i32, ptr %12, align 4
  %19 = load i32, ptr %11, align 4
  %20 = call ptr @proto_tree_add_uint(ptr noundef %15, i32 noundef %16, ptr noundef %17, i32 noundef %18, i32 noundef 0, i32 noundef %19)
  store ptr %20, ptr %13, align 8
  %21 = load ptr, ptr %13, align 8
  call void @proto_item_set_generated(ptr noundef %21)
  %22 = load i32, ptr %11, align 4
  switch i32 %22, label %31 [
    i32 41544, label %23
  ]

23:                                               ; preds = %6
  %24 = load ptr, ptr %10, align 8
  %25 = load i32, ptr @hf_juniper_unknown_data, align 4
  %26 = load ptr, ptr %7, align 8
  %27 = load i32, ptr %12, align 4
  %28 = call ptr @proto_tree_add_item(ptr noundef %24, i32 noundef %25, ptr noundef %26, i32 noundef %27, i32 noundef 4, i32 noundef 0)
  %29 = load i32, ptr %12, align 4
  %30 = add i32 %29, 4
  store i32 %30, ptr %12, align 4
  store i32 2, ptr %11, align 4
  br label %32

31:                                               ; preds = %6
  br label %32

32:                                               ; preds = %31, %23
  %33 = load ptr, ptr %10, align 8
  %34 = load i32, ptr %12, align 4
  call void @proto_item_set_len(ptr noundef %33, i32 noundef %34)
  %35 = load ptr, ptr %7, align 8
  %36 = load i32, ptr %12, align 4
  %37 = call ptr @tvb_new_subset_remaining(ptr noundef %35, i32 noundef %36)
  store ptr %37, ptr %14, align 8
  %38 = load ptr, ptr @payload_table, align 8
  %39 = load i32, ptr %11, align 4
  %40 = load ptr, ptr %14, align 8
  %41 = load ptr, ptr %8, align 8
  %42 = load ptr, ptr %9, align 8
  %43 = call i32 @dissector_try_uint(ptr noundef %38, i32 noundef %39, ptr noundef %40, ptr noundef %41, ptr noundef %42)
  %44 = icmp ne i32 %43, 0
  br i1 %44, label %50, label %45

45:                                               ; preds = %32
  %46 = load ptr, ptr %14, align 8
  %47 = load ptr, ptr %8, align 8
  %48 = load ptr, ptr %9, align 8
  %49 = call i32 @call_data_dissector(ptr noundef %46, ptr noundef %47, ptr noundef %48)
  br label %50

50:                                               ; preds = %45, %32
  call void @llvm.lifetime.end.p0(i64 8, ptr %14) #5
  call void @llvm.lifetime.end.p0(i64 8, ptr %13) #5
  ret i32 0
}

; Function Attrs: null_pointer_is_valid sspstrong uwtable
define internal i32 @dissect_juniper_pppoe(ptr noundef %0, ptr noundef %1, ptr noundef %2, ptr noundef %3) #0 {
  %5 = alloca i32, align 4
  %6 = alloca ptr, align 8
  %7 = alloca ptr, align 8
  %8 = alloca ptr, align 8
  %9 = alloca ptr, align 8
  %10 = alloca ptr, align 8
  %11 = alloca i32, align 4
  %12 = alloca i32, align 4
  %13 = alloca i8, align 1
  %14 = alloca i32, align 4
  store ptr %0, ptr %6, align 8
  store ptr %1, ptr %7, align 8
  store ptr %2, ptr %8, align 8
  store ptr %3, ptr %9, align 8
  call void @llvm.lifetime.start.p0(i64 8, ptr %10) #5
  call void @llvm.lifetime.start.p0(i64 4, ptr %11) #5
  call void @llvm.lifetime.start.p0(i64 4, ptr %12) #5
  call void @llvm.lifetime.start.p0(i64 1, ptr %13) #5
  %15 = load ptr, ptr %7, align 8
  %16 = getelementptr inbounds nuw %struct._packet_info, ptr %15, i32 0, i32 1
  %17 = load ptr, ptr %16, align 8
  call void @col_set_str(ptr noundef %17, i32 noundef 35, ptr noundef @.str.229)
  %18 = load ptr, ptr %7, align 8
  %19 = getelementptr inbounds nuw %struct._packet_info, ptr %18, i32 0, i32 1
  %20 = load ptr, ptr %19, align 8
  call void @col_clear(ptr noundef %20, i32 noundef 25)
  store i32 0, ptr %11, align 4
  %21 = load ptr, ptr %8, align 8
  %22 = load ptr, ptr %6, align 8
  %23 = load i32, ptr %11, align 4
  %24 = load i32, ptr @ett_juniper, align 4
  %25 = call ptr @proto_tree_add_subtree(ptr noundef %21, ptr noundef %22, i32 noundef %23, i32 noundef 4, i32 noundef %24, ptr noundef null, ptr noundef @.str.230)
  store ptr %25, ptr %10, align 8
  %26 = load ptr, ptr %6, align 8
  %27 = load ptr, ptr %7, align 8
  %28 = load ptr, ptr %8, align 8
  %29 = load ptr, ptr %10, align 8
  %30 = call i32 @dissect_juniper_header(ptr noundef %26, ptr noundef %27, ptr noundef %28, ptr noundef %29, ptr noundef %13)
  store i32 %30, ptr %12, align 4
  %31 = load i32, ptr %12, align 4
  %32 = icmp eq i32 %31, -1
  br i1 %32, label %33, label %34

33:                                               ; preds = %4
  store i32 4, ptr %5, align 4
  store i32 1, ptr %14, align 4
  br label %47

34:                                               ; preds = %4
  %35 = load i32, ptr %12, align 4
  %36 = load i32, ptr %11, align 4
  %37 = add i32 %36, %35
  store i32 %37, ptr %11, align 4
  br label %38

38:                                               ; preds = %34
  %39 = load ptr, ptr %6, align 8
  %40 = load ptr, ptr %7, align 8
  %41 = load ptr, ptr %8, align 8
  %42 = load ptr, ptr %10, align 8
  %43 = load i32, ptr %11, align 4
  %44 = call i32 @dissect_juniper_payload_proto(ptr noundef %39, ptr noundef %40, ptr noundef %41, ptr noundef %42, i32 noundef 204, i32 noundef %43)
  %45 = load ptr, ptr %6, align 8
  %46 = call i32 @tvb_captured_length(ptr noundef %45)
  store i32 %46, ptr %5, align 4
  store i32 1, ptr %14, align 4
  br label %47

47:                                               ; preds = %38, %33
  call void @llvm.lifetime.end.p0(i64 1, ptr %13) #5
  call void @llvm.lifetime.end.p0(i64 4, ptr %12) #5
  call void @llvm.lifetime.end.p0(i64 4, ptr %11) #5
  call void @llvm.lifetime.end.p0(i64 8, ptr %10) #5
  %48 = load i32, ptr %5, align 4
  ret i32 %48
}